target datalayout = "e-m:e-p270:32:32-p271:32:32-p272:64:64-i64:64-i128:128-f80:128-n8:16:32:64-S128"
target triple = "x86_64-pc-linux-gnu"

; Function Attrs: inlinehint nounwind uwtable
define internal i64 @If_CluAdjust2(i64 noundef %0, i32 noundef %1) #2 {
  %3 = alloca i64, align 8
  %4 = alloca i64, align 8
  %5 = alloca i32, align 4
  store i64 %0, ptr %4, align 8, !tbaa !76
  store i32 %1, ptr %5, align 4, !tbaa !3
  %6 = load i32, ptr %5, align 4, !tbaa !3
  %7 = icmp eq i32 %6, 6
  br i1 %7, label %8, label %10

8:                                                ; preds = %2
  %9 = load i64, ptr %4, align 8, !tbaa !76
  store i64 %9, ptr %3, align 8
  br label %91

10:                                               ; preds = %2
  %11 = load i32, ptr %5, align 4, !tbaa !3
  %12 = shl i32 1, %11
  %13 = zext i32 %12 to i64
  %14 = shl i64 1, %13
  %15 = sub i64 %14, 1
  %16 = load i64, ptr %4, align 8, !tbaa !76
  %17 = and i64 %16, %15
  store i64 %17, ptr %4, align 8, !tbaa !76
  %18 = load i32, ptr %5, align 4, !tbaa !3
  %19 = icmp eq i32 %18, 0
  br i1 %19, label %20, label %29

20:                                               ; preds = %10
  %21 = load i64, ptr %4, align 8, !tbaa !76
  %22 = load i32, ptr %5, align 4, !tbaa !3
  %23 = add nsw i32 %22, 1
  store i32 %23, ptr %5, align 4, !tbaa !3
  %24 = shl i32 1, %22
  %25 = zext i32 %24 to i64
  %26 = shl i64 %21, %25
  %27 = load i64, ptr %4, align 8, !tbaa !76
  %28 = or i64 %27, %26
  store i64 %28, ptr %4, align 8, !tbaa !76
  br label %29

29:                                               ; preds = %20, %10
  %30 = load i32, ptr %5, align 4, !tbaa !3
  %31 = icmp eq i32 %30, 1
  br i1 %31, label %32, label %41

32:                                               ; preds = %29
  %33 = load i64, ptr %4, align 8, !tbaa !76
  %34 = load i32, ptr %5, align 4, !tbaa !3
  %35 = add nsw i32 %34, 1
  store i32 %35, ptr %5, align 4, !tbaa !3
  %36 = shl i32 1, %34
  %37 = zext i32 %36 to i64
  %38 = shl i64 %33, %37
  %39 = load i64, ptr %4, align 8, !tbaa !76
  %40 = or i64 %39, %38
  store i64 %40, ptr %4, align 8, !tbaa !76
  br label %41

41:                                               ; preds = %32, %29
  %42 = load i32, ptr %5, align 4, !tbaa !3
  %43 = icmp eq i32 %42, 2
  br i1 %43, label %44, label %53

44:                                               ; preds = %41
  %45 = load i64, ptr %4, align 8, !tbaa !76
  %46 = load i32, ptr %5, align 4, !tbaa !3
  %47 = add nsw i32 %46, 1
  store i32 %47, ptr %5, align 4, !tbaa !3
  %48 = shl i32 1, %46
  %49 = zext i32 %48 to i64
  %50 = shl i64 %45, %49
  %51 = load i64, ptr %4, align 8, !tbaa !76
  %52 = or i64 %51, %50
  store i64 %52, ptr %4, align 8, !tbaa !76
  br label %53

53:                                               ; preds = %44, %41
  %54 = load i32, ptr %5, align 4, !tbaa !3
  %55 = icmp eq i32 %54, 3
  br i1 %55, label %56, label %65

56:                                               ; preds = %53
  %57 = load i64, ptr %4, align 8, !tbaa !76
  %58 = load i32, ptr %5, align 4, !tbaa !3
  %59 = add nsw i32 %58, 1
  store i32 %59, ptr %5, align 4, !tbaa !3
  %60 = shl i32 1, %58
  %61 = zext i32 %60 to i64
  %62 = shl i64 %57, %61
  %63 = load i64, ptr %4, align 8, !tbaa !76
  %64 = or i64 %63, %62
  store i64 %64, ptr %4, align 8, !tbaa !76
  br label %65

65:                                               ; preds = %56, %53
  %66 = load i32, ptr %5, align 4, !tbaa !3
  %67 = icmp eq i32 %66, 4
  br i1 %67, label %68, label %77

68:                                               ; preds = %65
  %69 = load i64, ptr %4, align 8, !tbaa !76
  %70 = load i32, ptr %5, align 4, !tbaa !3
  %71 = add nsw i32 %70, 1
  store i32 %71, ptr %5, align 4, !tbaa !3
  %72 = shl i32 1, %70
  %73 = zext i32 %72 to i64
  %74 = shl i64 %69, %73
  %75 = load i64, ptr %4, align 8, !tbaa !76
  %76 = or i64 %75, %74
  store i64 %76, ptr %4, align 8, !tbaa !76
  br label %77

77:                                               ; preds = %68, %65
  %78 = load i32, ptr %5, align 4, !tbaa !3
  %79 = icmp eq i32 %78, 5
  br i1 %79, label %80, label %89

80:                                               ; preds = %77
  %81 = load i64, ptr %4, align 8, !tbaa !76
  %82 = load i32, ptr %5, align 4, !tbaa !3
  %83 = add nsw i32 %82, 1
  store i32 %83, ptr %5, align 4, !tbaa !3
  %84 = shl i32 1, %82
  %85 = zext i32 %84 to i64
  %86 = shl i64 %81, %85
  %87 = load i64, ptr %4, align 8, !tbaa !76
  %88 = or i64 %87, %86
  store i64 %88, ptr %4, align 8, !tbaa !76
  br label %89

89:                                               ; preds = %80, %77
  %90 = load i64, ptr %4, align 8, !tbaa !76
  store i64 %90, ptr %3, align 8
  br label %91

91:                                               ; preds = %89, %8
  %92 = load i64, ptr %3, align 8
  ret i64 %92
}

; Function Attrs: nounwind uwtable
define i32 @If_CluCheckXXExt(ptr noundef %0, ptr noundef %1, i32 noundef %2, i32 noundef %3, i32 noundef %4, ptr noundef %5, ptr noundef %6, ptr noundef %7, ptr noundef %8) #0 {
  %10 = alloca i32, align 4
  %11 = alloca ptr, align 8
  %12 = alloca ptr, align 8
  %13 = alloca i32, align 4
  %14 = alloca i32, align 4
  %15 = alloca i32, align 4
  %16 = alloca ptr, align 8
  %17 = alloca ptr, align 8
  %18 = alloca ptr, align 8
  %19 = alloca ptr, align 8
  %20 = alloca [32 x i8], align 16
  %21 = alloca i32, align 4
  %22 = alloca i32, align 4
  %23 = alloca ptr, align 8
  %24 = alloca i32, align 4
  %25 = alloca i32, align 4
  %26 = alloca i32, align 4
  store ptr %0, ptr %11, align 8, !tbaa !15
  store ptr %1, ptr %12, align 8, !tbaa !28
  store i32 %2, ptr %13, align 4, !tbaa !3
  store i32 %3, ptr %14, align 4, !tbaa !3
  store i32 %4, ptr %15, align 4, !tbaa !3
  store ptr %5, ptr %16, align 8, !tbaa !30
  store ptr %6, ptr %17, align 8, !tbaa !30
  store ptr %7, ptr %18, align 8, !tbaa !28
  store ptr %8, ptr %19, align 8, !tbaa !28
  call void @llvm.lifetime.start.p0(i64 32, ptr %20) #11
  call void @llvm.lifetime.start.p0(i64 4, ptr %21) #11
  %27 = load ptr, ptr %12, align 8, !tbaa !28
  %28 = load i32, ptr %15, align 4, !tbaa !3
  %29 = load i32, ptr %13, align 4, !tbaa !3
  %30 = getelementptr inbounds [32 x i8], ptr %20, i64 0, i64 0
  %31 = call i32 @acdXX_decompose(ptr noundef %27, i32 noundef %28, i32 noundef %29, ptr noundef %30)
  %32 = icmp ne i32 %31, 0
  br i1 %32, label %33, label %34

33:                                               ; preds = %9
  store i32 0, ptr %10, align 4
  store i32 1, ptr %22, align 4
  br label %163

34:                                               ; preds = %9
  call void @llvm.lifetime.start.p0(i64 8, ptr %23) #11
  %35 = getelementptr inbounds [32 x i8], ptr %20, i64 0, i64 0
  %36 = getelementptr inbounds i8, ptr %35, i64 2
  store ptr %36, ptr %23, align 8, !tbaa !30
  call void @llvm.lifetime.start.p0(i64 4, ptr %24) #11
  %37 = load ptr, ptr %23, align 8, !tbaa !30
  %38 = getelementptr inbounds nuw i8, ptr %37, i32 1
  store ptr %38, ptr %23, align 8, !tbaa !30
  %39 = load i8, ptr %37, align 1, !tbaa !32
  %40 = zext i8 %39 to i32
  store i32 %40, ptr %24, align 4, !tbaa !3
  %41 = load i32, ptr %24, align 4, !tbaa !3
  %42 = trunc i32 %41 to i8
  %43 = load ptr, ptr %17, align 8, !tbaa !30
  %44 = getelementptr inbounds i8, ptr %43, i64 0
  store i8 %42, ptr %44, align 1, !tbaa !32
  %45 = load ptr, ptr %17, align 8, !tbaa !30
  %46 = getelementptr inbounds i8, ptr %45, i64 1
  store i8 0, ptr %46, align 1, !tbaa !32
  store i32 0, ptr %21, align 4, !tbaa !3
  br label %47

47:                                               ; preds = %60, %34
  %48 = load i32, ptr %21, align 4, !tbaa !3
  %49 = load i32, ptr %24, align 4, !tbaa !3
  %50 = icmp slt i32 %48, %49
  br i1 %50, label %51, label %63

51:                                               ; preds = %47
  %52 = load ptr, ptr %23, align 8, !tbaa !30
  %53 = getelementptr inbounds nuw i8, ptr %52, i32 1
  store ptr %53, ptr %23, align 8, !tbaa !30
  %54 = load i8, ptr %52, align 1, !tbaa !32
  %55 = load ptr, ptr %17, align 8, !tbaa !30
  %56 = load i32, ptr %21, align 4, !tbaa !3
  %57 = add nsw i32 2, %56
  %58 = sext i32 %57 to i64
  %59 = getelementptr inbounds i8, ptr %55, i64 %58
  store i8 %54, ptr %59, align 1, !tbaa !32
  br label %60

60:                                               ; preds = %51
  %61 = load i32, ptr %21, align 4, !tbaa !3
  %62 = add nsw i32 %61, 1
  store i32 %62, ptr %21, align 4, !tbaa !3
  br label %47, !llvm.loop !75

63:                                               ; preds = %47
  call void @llvm.lifetime.start.p0(i64 4, ptr %25) #11
  %64 = load i32, ptr %24, align 4, !tbaa !3
  %65 = icmp sle i32 %64, 3
  br i1 %65, label %66, label %67

66:                                               ; preds = %63
  br label %71

67:                                               ; preds = %63
  %68 = load i32, ptr %24, align 4, !tbaa !3
  %69 = sub nsw i32 %68, 3
  %70 = shl i32 1, %69
  br label %71

71:                                               ; preds = %67, %66
  %72 = phi i32 [ 1, %66 ], [ %70, %67 ]
  store i32 %72, ptr %25, align 4, !tbaa !3
  %73 = load ptr, ptr %19, align 8, !tbaa !28
  store i64 0, ptr %73, align 8, !tbaa !76
  store i32 0, ptr %21, align 4, !tbaa !3
  br label %74

74:                                               ; preds = %91, %71
  %75 = load i32, ptr %21, align 4, !tbaa !3
  %76 = load i32, ptr %25, align 4, !tbaa !3
  %77 = icmp slt i32 %75, %76
  br i1 %77, label %78, label %94

78:                                               ; preds = %74
  %79 = load ptr, ptr %23, align 8, !tbaa !30
  %80 = getelementptr inbounds nuw i8, ptr %79, i32 1
  store ptr %80, ptr %23, align 8, !tbaa !30
  %81 = load i8, ptr %79, align 1, !tbaa !32
  %82 = zext i8 %81 to i64
  %83 = and i64 %82, 255
  %84 = load i32, ptr %21, align 4, !tbaa !3
  %85 = mul nsw i32 8, %84
  %86 = zext i32 %85 to i64
  %87 = shl i64 %83, %86
  %88 = load ptr, ptr %19, align 8, !tbaa !28
  %89 = load i64, ptr %88, align 8, !tbaa !76
  %90 = or i64 %89, %87
  store i64 %90, ptr %88, align 8, !tbaa !76
  br label %91

91:                                               ; preds = %78
  %92 = load i32, ptr %21, align 4, !tbaa !3
  %93 = add nsw i32 %92, 1
  store i32 %93, ptr %21, align 4, !tbaa !3
  br label %74, !llvm.loop !78

94:                                               ; preds = %74
  call void @llvm.lifetime.start.p0(i64 4, ptr %26) #11
  %95 = load ptr, ptr %23, align 8, !tbaa !30
  %96 = getelementptr inbounds nuw i8, ptr %95, i32 1
  store ptr %96, ptr %23, align 8, !tbaa !30
  %97 = load i8, ptr %95, align 1, !tbaa !32
  %98 = zext i8 %97 to i32
  store i32 %98, ptr %26, align 4, !tbaa !3
  %99 = load i32, ptr %26, align 4, !tbaa !3
  %100 = trunc i32 %99 to i8
  %101 = load ptr, ptr %16, align 8, !tbaa !30
  %102 = getelementptr inbounds i8, ptr %101, i64 0
  store i8 %100, ptr %102, align 1, !tbaa !32
  %103 = load ptr, ptr %16, align 8, !tbaa !30
  %104 = getelementptr inbounds i8, ptr %103, i64 1
  store i8 0, ptr %104, align 1, !tbaa !32
  store i32 0, ptr %21, align 4, !tbaa !3
  br label %105

105:                                              ; preds = %118, %94
  %106 = load i32, ptr %21, align 4, !tbaa !3
  %107 = load i32, ptr %26, align 4, !tbaa !3
  %108 = icmp slt i32 %106, %107
  br i1 %108, label %109, label %121

109:                                              ; preds = %105
  %110 = load ptr, ptr %23, align 8, !tbaa !30
  %111 = getelementptr inbounds nuw i8, ptr %110, i32 1
  store ptr %111, ptr %23, align 8, !tbaa !30
  %112 = load i8, ptr %110, align 1, !tbaa !32
  %113 = load ptr, ptr %16, align 8, !tbaa !30
  %114 = load i32, ptr %21, align 4, !tbaa !3
  %115 = add nsw i32 2, %114
  %116 = sext i32 %115 to i64
  %117 = getelementptr inbounds i8, ptr %113, i64 %116
  store i8 %112, ptr %117, align 1, !tbaa !32
  br label %118

118:                                              ; preds = %109
  %119 = load i32, ptr %21, align 4, !tbaa !3
  %120 = add nsw i32 %119, 1
  store i32 %120, ptr %21, align 4, !tbaa !3
  br label %105, !llvm.loop !79

121:                                              ; preds = %105
  %122 = load i32, ptr %26, align 4, !tbaa !3
  %123 = icmp sle i32 %122, 3
  br i1 %123, label %124, label %125

124:                                              ; preds = %121
  br label %129

125:                                              ; preds = %121
  %126 = load i32, ptr %26, align 4, !tbaa !3
  %127 = sub nsw i32 %126, 3
  %128 = shl i32 1, %127
  br label %129

129:                                              ; preds = %125, %124
  %130 = phi i32 [ 1, %124 ], [ %128, %125 ]
  store i32 %130, ptr %25, align 4, !tbaa !3
  %131 = load ptr, ptr %18, align 8, !tbaa !28
  store i64 0, ptr %131, align 8, !tbaa !76
  store i32 0, ptr %21, align 4, !tbaa !3
  br label %132

132:                                              ; preds = %149, %129
  %133 = load i32, ptr %21, align 4, !tbaa !3
  %134 = load i32, ptr %25, align 4, !tbaa !3
  %135 = icmp slt i32 %133, %134
  br i1 %135, label %136, label %152

136:                                              ; preds = %132
  %137 = load ptr, ptr %23, align 8, !tbaa !30
  %138 = getelementptr inbounds nuw i8, ptr %137, i32 1
  store ptr %138, ptr %23, align 8, !tbaa !30
  %139 = load i8, ptr %137, align 1, !tbaa !32
  %140 = zext i8 %139 to i64
  %141 = and i64 %140, 255
  %142 = load i32, ptr %21, align 4, !tbaa !3
  %143 = mul nsw i32 8, %142
  %144 = zext i32 %143 to i64
  %145 = shl i64 %141, %144
  %146 = load ptr, ptr %18, align 8, !tbaa !28
  %147 = load i64, ptr %146, align 8, !tbaa !76
  %148 = or i64 %147, %145
  store i64 %148, ptr %146, align 8, !tbaa !76
  br label %149

149:                                              ; preds = %136
  %150 = load i32, ptr %21, align 4, !tbaa !3
  %151 = add nsw i32 %150, 1
  store i32 %151, ptr %21, align 4, !tbaa !3
  br label %132, !llvm.loop !80

152:                                              ; preds = %132
  %153 = load ptr, ptr %19, align 8, !tbaa !28
  %154 = load i64, ptr %153, align 8, !tbaa !76
  %155 = load i32, ptr %24, align 4, !tbaa !3
  %156 = call i64 @If_CluAdjust2(i64 noundef %154, i32 noundef %155)
  %157 = load ptr, ptr %19, align 8, !tbaa !28
  store i64 %156, ptr %157, align 8, !tbaa !76
  %158 = load ptr, ptr %18, align 8, !tbaa !28
  %159 = load i64, ptr %158, align 8, !tbaa !76
  %160 = load i32, ptr %26, align 4, !tbaa !3
  %161 = call i64 @If_CluAdjust2(i64 noundef %159, i32 noundef %160)
  %162 = load ptr, ptr %18, align 8, !tbaa !28
  store i64 %161, ptr %162, align 8, !tbaa !76
  store i32 1, ptr %10, align 4
  store i32 1, ptr %22, align 4
  call void @llvm.lifetime.end.p0(i64 4, ptr %26) #11
  call void @llvm.lifetime.end.p0(i64 4, ptr %25) #11
  call void @llvm.lifetime.end.p0(i64 4, ptr %24) #11
  call void @llvm.lifetime.end.p0(i64 8, ptr %23) #11
  br label %163

163:                                              ; preds = %152, %33
  call void @llvm.lifetime.end.p0(i64 4, ptr %21) #11
  call void @llvm.lifetime.end.p0(i64 32, ptr %20) #11
  %164 = load i32, ptr %10, align 4
  ret i32 %164
}