; Function Attrs: nounwind uwtable
define range(i32 0, 2) i32 @If_CluCheckXXExt(ptr noundef readnone captures(none) %0, ptr noundef %1, i32 noundef %2, i32 noundef %3, i32 noundef %4, ptr noundef writeonly captures(none) %5, ptr noundef writeonly captures(none) %6, ptr noundef captures(none) %7, ptr noundef captures(none) %8) local_unnamed_addr #2 {
  %10 = alloca [32 x i8], align 16
  call void @llvm.lifetime.start.p0(i64 32, ptr nonnull %10) #17
  %11 = call i32 @acdXX_decompose(ptr noundef %1, i32 noundef %4, i32 noundef %2, ptr noundef nonnull %10) #17
  %.not = icmp eq i32 %11, 0
  br i1 %.not, label %12, label %104

12:                                               ; preds = %9
  %13 = getelementptr inbounds nuw i8, ptr %10, i64 2
  %14 = getelementptr inbounds nuw i8, ptr %10, i64 3
  %15 = load i8, ptr %13, align 2, !tbaa !24
  %16 = zext i8 %15 to i32
  store i8 %15, ptr %6, align 1, !tbaa !24
  %17 = getelementptr inbounds nuw i8, ptr %6, i64 1
  store i8 0, ptr %17, align 1, !tbaa !24
  %.not90 = icmp eq i8 %15, 0
  br i1 %.not90, label %.lr.ph72, label %._crit_edge

._crit_edge:                                      ; preds = %12
  %invariant.gep = getelementptr i8, ptr %6, i64 2
  %18 = zext i8 %15 to i64
  call void @llvm.memcpy.p0.p0.i64(ptr align 1 %invariant.gep, ptr nonnull align 1 %14, i64 %18, i1 false), !tbaa !24
  %19 = add nsw i32 %16, -1
  %20 = zext i32 %19 to i64
  %21 = getelementptr i8, ptr %10, i64 %20
  %scevgep = getelementptr i8, ptr %21, i64 4
  %22 = icmp ult i8 %15, 4
  %23 = add nsw i32 %16, -3
  %24 = shl nuw i32 1, %23
  %25 = select i1 %22, i32 1, i32 %24
  store i64 0, ptr %8, align 8, !tbaa !67
  %26 = icmp sgt i32 %25, 0
  br i1 %26, label %.lr.ph72, label %._crit_edge73

.lr.ph72:                                         ; preds = %12, %._crit_edge
  %27 = phi i32 [ %25, %._crit_edge ], [ 1, %12 ]
  %.048.lcssa107 = phi ptr [ %scevgep, %._crit_edge ], [ %14, %12 ]
  %wide.trip.count = zext nneg i32 %27 to i64
  br label %28

28:                                               ; preds = %.lr.ph72, %28
  %indvars.iv = phi i64 [ 0, %.lr.ph72 ], [ %indvars.iv.next, %28 ]
  %29 = phi i64 [ 0, %.lr.ph72 ], [ %35, %28 ]
  %.14969 = phi ptr [ %.048.lcssa107, %.lr.ph72 ], [ %30, %28 ]
  %30 = getelementptr inbounds nuw i8, ptr %.14969, i64 1
  %31 = load i8, ptr %.14969, align 1, !tbaa !24
  %32 = zext i8 %31 to i64
  %33 = shl nsw i64 %indvars.iv, 3
  %34 = shl i64 %32, %33
  %35 = or i64 %34, %29
  %indvars.iv.next = add nuw nsw i64 %indvars.iv, 1
  %exitcond.not = icmp eq i64 %indvars.iv.next, %wide.trip.count
  br i1 %exitcond.not, label %._crit_edge73.loopexit, label %28, !llvm.loop !69

._crit_edge73.loopexit:                           ; preds = %28
  store i64 %35, ptr %8, align 8, !tbaa !67
  br label %._crit_edge73

._crit_edge73:                                    ; preds = %._crit_edge73.loopexit, %._crit_edge
  %.149.lcssa = phi ptr [ %scevgep, %._crit_edge ], [ %30, %._crit_edge73.loopexit ]
  %36 = load i8, ptr %.149.lcssa, align 1, !tbaa !24
  %37 = zext i8 %36 to i32
  store i8 %36, ptr %5, align 1, !tbaa !24
  %38 = getelementptr inbounds nuw i8, ptr %5, i64 1
  store i8 0, ptr %38, align 1, !tbaa !24
  %invariant.gep75 = getelementptr inbounds nuw i8, ptr %5, i64 2
  %.25077 = getelementptr inbounds nuw i8, ptr %.149.lcssa, i64 1
  %.not91 = icmp eq i8 %36, 0
  br i1 %.not91, label %._crit_edge82.thread, label %.lr.ph81.preheader

._crit_edge82.thread:                             ; preds = %._crit_edge73
  store i64 0, ptr %7, align 8, !tbaa !67
  br label %.lr.ph87

.lr.ph81.preheader:                               ; preds = %._crit_edge73
  %wide.trip.count99 = zext i8 %36 to i64
  br label %.lr.ph81

.lr.ph81:                                         ; preds = %.lr.ph81.preheader, %.lr.ph81
  %indvars.iv96 = phi i64 [ 0, %.lr.ph81.preheader ], [ %indvars.iv.next97, %.lr.ph81 ]
  %.25079 = phi ptr [ %.25077, %.lr.ph81.preheader ], [ %.250, %.lr.ph81 ]
  %39 = load i8, ptr %.25079, align 1, !tbaa !24
  %gep76 = getelementptr inbounds nuw i8, ptr %invariant.gep75, i64 %indvars.iv96
  store i8 %39, ptr %gep76, align 1, !tbaa !24
  %indvars.iv.next97 = add nuw nsw i64 %indvars.iv96, 1
  %.250 = getelementptr inbounds nuw i8, ptr %.25079, i64 1
  %exitcond100.not = icmp eq i64 %indvars.iv.next97, %wide.trip.count99
  br i1 %exitcond100.not, label %._crit_edge82, label %.lr.ph81, !llvm.loop !70

._crit_edge82:                                    ; preds = %.lr.ph81
  %40 = icmp ult i8 %36, 4
  %41 = add nsw i32 %37, -3
  %42 = shl nuw i32 1, %41
  %43 = select i1 %40, i32 1, i32 %42
  store i64 0, ptr %7, align 8, !tbaa !67
  %44 = icmp sgt i32 %43, 0
  br i1 %44, label %.lr.ph87, label %._crit_edge88

.lr.ph87:                                         ; preds = %._crit_edge82.thread, %._crit_edge82
  %45 = phi i32 [ 1, %._crit_edge82.thread ], [ %43, %._crit_edge82 ]
  %.250.lcssa109 = phi ptr [ %.25077, %._crit_edge82.thread ], [ %.250, %._crit_edge82 ]
  %wide.trip.count104 = zext nneg i32 %45 to i64
  br label %46

46:                                               ; preds = %.lr.ph87, %46
  %indvars.iv101 = phi i64 [ 0, %.lr.ph87 ], [ %indvars.iv.next102, %46 ]
  %47 = phi i64 [ 0, %.lr.ph87 ], [ %53, %46 ]
  %.35184 = phi ptr [ %.250.lcssa109, %.lr.ph87 ], [ %48, %46 ]
  %48 = getelementptr inbounds nuw i8, ptr %.35184, i64 1
  %49 = load i8, ptr %.35184, align 1, !tbaa !24
  %50 = zext i8 %49 to i64
  %51 = shl nsw i64 %indvars.iv101, 3
  %52 = shl i64 %50, %51
  %53 = or i64 %52, %47
  store i64 %53, ptr %7, align 8, !tbaa !67
  %indvars.iv.next102 = add nuw nsw i64 %indvars.iv101, 1
  %exitcond105.not = icmp eq i64 %indvars.iv.next102, %wide.trip.count104
  br i1 %exitcond105.not, label %._crit_edge88, label %46, !llvm.loop !71

._crit_edge88:                                    ; preds = %46, %._crit_edge82
  %54 = load i64, ptr %8, align 8, !tbaa !67
  %55 = icmp eq i8 %15, 6
  br i1 %55, label %If_CluAdjust2.exit, label %56

56:                                               ; preds = %._crit_edge88
  %57 = shl nuw i32 1, %16
  %58 = zext i32 %57 to i64
  %notmask.i = shl nsw i64 -1, %58
  %59 = xor i64 %notmask.i, -1
  %60 = and i64 %54, %59
  %61 = shl nuw nsw i64 %60, %58
  %62 = select i1 %.not90, i64 %61, i64 0
  %.030.i = or i64 %62, %60
  %.0.i = call i32 @llvm.umax.i32(i32 range(i32 -2147483648, 256) %16, i32 1)
  %63 = icmp ult i8 %15, 2
  %64 = shl i64 %.030.i, 2
  %65 = select i1 %63, i64 %64, i64 0
  %.131.i = or i64 %65, %.030.i
  %.1.i = select i1 %63, i32 2, i32 %.0.i
  %66 = icmp eq i32 %.1.i, 2
  %67 = shl i64 %.131.i, 4
  %68 = select i1 %66, i64 %67, i64 0
  %.232.i = or i64 %68, %.131.i
  %.2.i = select i1 %66, i32 3, i32 %.1.i
  %69 = icmp eq i32 %.2.i, 3
  %70 = shl i64 %.232.i, 8
  %71 = select i1 %69, i64 %70, i64 0
  %.333.i = or i64 %71, %.232.i
  %.3.i = select i1 %69, i32 4, i32 %.2.i
  %72 = icmp eq i32 %.3.i, 4
  %73 = shl i64 %.333.i, 16
  %74 = select i1 %72, i64 %73, i64 0
  %.434.i = or i64 %74, %.333.i
  %75 = and i32 %.3.i, 254
  %76 = icmp eq i32 %75, 4
  %77 = shl i64 %.434.i, 32
  %78 = select i1 %76, i64 %77, i64 0
  %.5.i = or i64 %78, %.434.i
  br label %If_CluAdjust2.exit

If_CluAdjust2.exit:                               ; preds = %._crit_edge88, %56
  %.035.i = phi i64 [ %.5.i, %56 ], [ %54, %._crit_edge88 ]
  store i64 %.035.i, ptr %8, align 8, !tbaa !67
  %79 = load i64, ptr %7, align 8, !tbaa !67
  %80 = icmp eq i8 %36, 6
  br i1 %80, label %If_CluAdjust2.exit66, label %81

81:                                               ; preds = %If_CluAdjust2.exit
  %82 = shl nuw i32 1, %37
  %83 = zext i32 %82 to i64
  %notmask.i54 = shl nsw i64 -1, %83
  %84 = xor i64 %notmask.i54, -1
  %85 = and i64 %79, %84
  %86 = shl nuw nsw i64 %85, %83
  %87 = select i1 %.not91, i64 %86, i64 0
  %.030.i55 = or i64 %87, %85
  %.0.i56 = call i32 @llvm.umax.i32(i32 range(i32 -2147483648, 256) %37, i32 1)
  %88 = icmp ult i8 %36, 2
  %89 = shl i64 %.030.i55, 2
  %90 = select i1 %88, i64 %89, i64 0
  %.131.i57 = or i64 %90, %.030.i55
  %.1.i58 = select i1 %88, i32 2, i32 %.0.i56
  %91 = icmp eq i32 %.1.i58, 2
  %92 = shl i64 %.131.i57, 4
  %93 = select i1 %91, i64 %92, i64 0
  %.232.i59 = or i64 %93, %.131.i57
  %.2.i60 = select i1 %91, i32 3, i32 %.1.i58
  %94 = icmp eq i32 %.2.i60, 3
  %95 = shl i64 %.232.i59, 8
  %96 = select i1 %94, i64 %95, i64 0
  %.333.i61 = or i64 %96, %.232.i59
  %.3.i62 = select i1 %94, i32 4, i32 %.2.i60
  %97 = icmp eq i32 %.3.i62, 4
  %98 = shl i64 %.333.i61, 16
  %99 = select i1 %97, i64 %98, i64 0
  %.434.i63 = or i64 %99, %.333.i61
  %100 = and i32 %.3.i62, 254
  %101 = icmp eq i32 %100, 4
  %102 = shl i64 %.434.i63, 32
  %103 = select i1 %101, i64 %102, i64 0
  %.5.i64 = or i64 %103, %.434.i63
  br label %If_CluAdjust2.exit66

If_CluAdjust2.exit66:                             ; preds = %If_CluAdjust2.exit, %81
  %.035.i65 = phi i64 [ %.5.i64, %81 ], [ %79, %If_CluAdjust2.exit ]
  store i64 %.035.i65, ptr %7, align 8, !tbaa !67
  br label %104

104:                                              ; preds = %9, %If_CluAdjust2.exit66
  %.0 = phi i32 [ 1, %If_CluAdjust2.exit66 ], [ 0, %9 ]
  call void @llvm.lifetime.end.p0(i64 32, ptr nonnull %10) #17
  ret i32 %.0
}